; Function Attrs: mustprogress uwtable
define hidden void @_ZN2cv6bgsegm27BackgroundSubtractorCNTImpl20setMaxPixelStabilityEi(ptr noundef nonnull align 8 captures(none) dereferenceable(312) %0, i32 noundef %1) unnamed_addr #0 align 2 personality ptr @__gxx_personality_v0 {
  %3 = alloca %"class.std::__cxx11::basic_string", align 8
  %4 = alloca %"class.std::allocator", align 1
  %5 = getelementptr inbounds nuw i8, ptr %0, i64 8
  %6 = load i32, ptr %5, align 8, !tbaa !6
  %7 = icmp sgt i32 %1, %6
  br i1 %7, label %18, label %8

8:                                                ; preds = %2
  call void @llvm.lifetime.start.p0(i64 32, ptr nonnull %3) #15
  call void @llvm.lifetime.start.p0(i64 1, ptr nonnull %4) #15
  call void @_ZNSt7__cxx1112basic_stringIcSt11char_traitsIcESaIcEEC2EPKcRKS3_(ptr noundef nonnull align 8 dereferenceable(32) %3, ptr noundef nonnull @.str.3, ptr noundef nonnull align 1 dereferenceable(1) %4)
  invoke void @_ZN2cv5errorEiRKNSt7__cxx1112basic_stringIcSt11char_traitsIcESaIcEEEPKcS9_i(i32 noundef -215, ptr noundef nonnull align 8 dereferenceable(32) %3, ptr noundef nonnull @__func__._ZN2cv6bgsegm27BackgroundSubtractorCNTImpl20setMaxPixelStabilityEi, ptr noundef nonnull @.str.1, i32 noundef 142) #16
          to label %9 unwind label %10

9:                                                ; preds = %8
  unreachable

10:                                               ; preds = %8
  %11 = landingpad { ptr, i32 }
          cleanup
  %12 = load ptr, ptr %3, align 8, !tbaa !29
  %13 = getelementptr inbounds nuw i8, ptr %3, i64 16
  %14 = icmp eq ptr %12, %13
  br i1 %14, label %_ZNKSt7__cxx1112basic_stringIcSt11char_traitsIcESaIcEE11_M_is_localEv.exit.thread.i.i, label %_ZNKSt7__cxx1112basic_stringIcSt11char_traitsIcESaIcEE11_M_is_localEv.exit.i.i

_ZNKSt7__cxx1112basic_stringIcSt11char_traitsIcESaIcEE11_M_is_localEv.exit.thread.i.i: ; preds = %10
  %15 = getelementptr inbounds nuw i8, ptr %3, i64 8
  %16 = load i64, ptr %15, align 8, !tbaa !33
  %17 = icmp ult i64 %16, 16
  call void @llvm.assume(i1 %17)
  br label %_ZNSt7__cxx1112basic_stringIcSt11char_traitsIcESaIcEED2Ev.exit

_ZNKSt7__cxx1112basic_stringIcSt11char_traitsIcESaIcEE11_M_is_localEv.exit.i.i: ; preds = %10
  call void @_ZdlPv(ptr noundef %12) #17
  br label %_ZNSt7__cxx1112basic_stringIcSt11char_traitsIcESaIcEED2Ev.exit

_ZNSt7__cxx1112basic_stringIcSt11char_traitsIcESaIcEED2Ev.exit: ; preds = %_ZNKSt7__cxx1112basic_stringIcSt11char_traitsIcESaIcEE11_M_is_localEv.exit.i.i, %_ZNKSt7__cxx1112basic_stringIcSt11char_traitsIcESaIcEE11_M_is_localEv.exit.thread.i.i
  call void @llvm.lifetime.end.p0(i64 1, ptr nonnull %4) #15
  call void @llvm.lifetime.end.p0(i64 32, ptr nonnull %3) #15
  resume { ptr, i32 } %11

18:                                               ; preds = %2
  %19 = getelementptr inbounds nuw i8, ptr %0, i64 12
  store i32 %1, ptr %19, align 4, !tbaa !24
  ret void
}